
forest:     file format elf32-i386


Disassembly of section .init:

080482f4 <.init>:
 80482f4:	53                   	push   ebx
 80482f5:	83 ec 08             	sub    esp,0x8
 80482f8:	e8 c3 00 00 00       	call   80483c0 <__libc_start_main@plt+0x40>
 80482fd:	81 c3 e3 18 00 00    	add    ebx,0x18e3
 8048303:	8b 83 fc ff ff ff    	mov    eax,DWORD PTR [ebx-0x4]
 8048309:	85 c0                	test   eax,eax
 804830b:	74 05                	je     8048312 <printf@plt-0x1e>
 804830d:	e8 4e 00 00 00       	call   8048360 <__gmon_start__@plt>
 8048312:	83 c4 08             	add    esp,0x8
 8048315:	5b                   	pop    ebx
 8048316:	c3                   	ret    

Disassembly of section .plt:

08048320 <printf@plt-0x10>:
 8048320:	ff 35 e4 9b 04 08    	push   DWORD PTR ds:0x8049be4
 8048326:	ff 25 e8 9b 04 08    	jmp    DWORD PTR ds:0x8049be8
 804832c:	00 00                	add    BYTE PTR [eax],al
	...

08048330 <printf@plt>:
 8048330:	ff 25 ec 9b 04 08    	jmp    DWORD PTR ds:0x8049bec
 8048336:	68 00 00 00 00       	push   0x0
 804833b:	e9 e0 ff ff ff       	jmp    8048320 <printf@plt-0x10>

08048340 <malloc@plt>:
 8048340:	ff 25 f0 9b 04 08    	jmp    DWORD PTR ds:0x8049bf0
 8048346:	68 08 00 00 00       	push   0x8
 804834b:	e9 d0 ff ff ff       	jmp    8048320 <printf@plt-0x10>

08048350 <puts@plt>:
 8048350:	ff 25 f4 9b 04 08    	jmp    DWORD PTR ds:0x8049bf4
 8048356:	68 10 00 00 00       	push   0x10
 804835b:	e9 c0 ff ff ff       	jmp    8048320 <printf@plt-0x10>

08048360 <__gmon_start__@plt>:
 8048360:	ff 25 f8 9b 04 08    	jmp    DWORD PTR ds:0x8049bf8
 8048366:	68 18 00 00 00       	push   0x18
 804836b:	e9 b0 ff ff ff       	jmp    8048320 <printf@plt-0x10>

08048370 <exit@plt>:
 8048370:	ff 25 fc 9b 04 08    	jmp    DWORD PTR ds:0x8049bfc
 8048376:	68 20 00 00 00       	push   0x20
 804837b:	e9 a0 ff ff ff       	jmp    8048320 <printf@plt-0x10>

08048380 <__libc_start_main@plt>:
 8048380:	ff 25 00 9c 04 08    	jmp    DWORD PTR ds:0x8049c00
 8048386:	68 28 00 00 00       	push   0x28
 804838b:	e9 90 ff ff ff       	jmp    8048320 <printf@plt-0x10>

Disassembly of section .text:

08048390 <.text>:
 8048390:	31 ed                	xor    ebp,ebp
 8048392:	5e                   	pop    esi
 8048393:	89 e1                	mov    ecx,esp
 8048395:	83 e4 f0             	and    esp,0xfffffff0
 8048398:	50                   	push   eax
 8048399:	54                   	push   esp
 804839a:	52                   	push   edx
 804839b:	68 70 88 04 08       	push   0x8048870
 80483a0:	68 00 88 04 08       	push   0x8048800
 80483a5:	51                   	push   ecx
 80483a6:	56                   	push   esi
 80483a7:	68 3e 87 04 08       	push   0x804873e
 80483ac:	e8 cf ff ff ff       	call   8048380 <__libc_start_main@plt>
 80483b1:	f4                   	hlt    
 80483b2:	66 90                	xchg   ax,ax
 80483b4:	66 90                	xchg   ax,ax
 80483b6:	66 90                	xchg   ax,ax
 80483b8:	66 90                	xchg   ax,ax
 80483ba:	66 90                	xchg   ax,ax
 80483bc:	66 90                	xchg   ax,ax
 80483be:	66 90                	xchg   ax,ax
 80483c0:	8b 1c 24             	mov    ebx,DWORD PTR [esp]
 80483c3:	c3                   	ret    
 80483c4:	66 90                	xchg   ax,ax
 80483c6:	66 90                	xchg   ax,ax
 80483c8:	66 90                	xchg   ax,ax
 80483ca:	66 90                	xchg   ax,ax
 80483cc:	66 90                	xchg   ax,ax
 80483ce:	66 90                	xchg   ax,ax
 80483d0:	b8 13 9c 04 08       	mov    eax,0x8049c13
 80483d5:	2d 10 9c 04 08       	sub    eax,0x8049c10
 80483da:	83 f8 06             	cmp    eax,0x6
 80483dd:	76 1a                	jbe    80483f9 <__libc_start_main@plt+0x79>
 80483df:	b8 00 00 00 00       	mov    eax,0x0
 80483e4:	85 c0                	test   eax,eax
 80483e6:	74 11                	je     80483f9 <__libc_start_main@plt+0x79>
 80483e8:	55                   	push   ebp
 80483e9:	89 e5                	mov    ebp,esp
 80483eb:	83 ec 14             	sub    esp,0x14
 80483ee:	68 10 9c 04 08       	push   0x8049c10
 80483f3:	ff d0                	call   eax
 80483f5:	83 c4 10             	add    esp,0x10
 80483f8:	c9                   	leave  
 80483f9:	f3 c3                	repz ret 
 80483fb:	90                   	nop
 80483fc:	8d 74 26 00          	lea    esi,[esi+eiz*1+0x0]
 8048400:	b8 10 9c 04 08       	mov    eax,0x8049c10
 8048405:	2d 10 9c 04 08       	sub    eax,0x8049c10
 804840a:	c1 f8 02             	sar    eax,0x2
 804840d:	89 c2                	mov    edx,eax
 804840f:	c1 ea 1f             	shr    edx,0x1f
 8048412:	01 d0                	add    eax,edx
 8048414:	d1 f8                	sar    eax,1
 8048416:	74 1b                	je     8048433 <__libc_start_main@plt+0xb3>
 8048418:	ba 00 00 00 00       	mov    edx,0x0
 804841d:	85 d2                	test   edx,edx
 804841f:	74 12                	je     8048433 <__libc_start_main@plt+0xb3>
 8048421:	55                   	push   ebp
 8048422:	89 e5                	mov    ebp,esp
 8048424:	83 ec 10             	sub    esp,0x10
 8048427:	50                   	push   eax
 8048428:	68 10 9c 04 08       	push   0x8049c10
 804842d:	ff d2                	call   edx
 804842f:	83 c4 10             	add    esp,0x10
 8048432:	c9                   	leave  
 8048433:	f3 c3                	repz ret 
 8048435:	8d 74 26 00          	lea    esi,[esi+eiz*1+0x0]
 8048439:	8d bc 27 00 00 00 00 	lea    edi,[edi+eiz*1+0x0]
 8048440:	80 3d 10 9c 04 08 00 	cmp    BYTE PTR ds:0x8049c10,0x0
 8048447:	75 13                	jne    804845c <__libc_start_main@plt+0xdc>
 8048449:	55                   	push   ebp
 804844a:	89 e5                	mov    ebp,esp
 804844c:	83 ec 08             	sub    esp,0x8
 804844f:	e8 7c ff ff ff       	call   80483d0 <__libc_start_main@plt+0x50>
 8048454:	c6 05 10 9c 04 08 01 	mov    BYTE PTR ds:0x8049c10,0x1
 804845b:	c9                   	leave  
 804845c:	f3 c3                	repz ret 
 804845e:	66 90                	xchg   ax,ax
 8048460:	b8 f0 9a 04 08       	mov    eax,0x8049af0
 8048465:	8b 10                	mov    edx,DWORD PTR [eax]
 8048467:	85 d2                	test   edx,edx
 8048469:	75 05                	jne    8048470 <__libc_start_main@plt+0xf0>
 804846b:	eb 93                	jmp    8048400 <__libc_start_main@plt+0x80>
 804846d:	8d 76 00             	lea    esi,[esi+0x0]
 8048470:	ba 00 00 00 00       	mov    edx,0x0
 8048475:	85 d2                	test   edx,edx
 8048477:	74 f2                	je     804846b <__libc_start_main@plt+0xeb>
 8048479:	55                   	push   ebp
 804847a:	89 e5                	mov    ebp,esp
 804847c:	83 ec 14             	sub    esp,0x14
 804847f:	50                   	push   eax
 8048480:	ff d2                	call   edx
 8048482:	83 c4 10             	add    esp,0x10
 8048485:	c9                   	leave  
 8048486:	e9 75 ff ff ff       	jmp    8048400 <__libc_start_main@plt+0x80>
 804848b:	55                   	push   ebp
 804848c:	89 e5                	mov    ebp,esp
 804848e:	83 ec 18             	sub    esp,0x18
 8048491:	83 7d 08 00          	cmp    DWORD PTR [ebp+0x8],0x0
 8048495:	74 0c                	je     80484a3 <__libc_start_main@plt+0x123>
 8048497:	83 7d 0c 00          	cmp    DWORD PTR [ebp+0xc],0x0
 804849b:	74 06                	je     80484a3 <__libc_start_main@plt+0x123>
 804849d:	83 7d 10 00          	cmp    DWORD PTR [ebp+0x10],0x0
 80484a1:	75 0a                	jne    80484ad <__libc_start_main@plt+0x12d>
 80484a3:	b8 00 00 00 00       	mov    eax,0x0
 80484a8:	e9 8a 00 00 00       	jmp    8048537 <__libc_start_main@plt+0x1b7>
 80484ad:	c7 45 f4 01 00 00 00 	mov    DWORD PTR [ebp-0xc],0x1
 80484b4:	8b 45 0c             	mov    eax,DWORD PTR [ebp+0xc]
 80484b7:	89 45 f0             	mov    DWORD PTR [ebp-0x10],eax
 80484ba:	8b 45 10             	mov    eax,DWORD PTR [ebp+0x10]
 80484bd:	89 45 ec             	mov    DWORD PTR [ebp-0x14],eax
 80484c0:	eb 40                	jmp    8048502 <__libc_start_main@plt+0x182>
 80484c2:	8b 45 ec             	mov    eax,DWORD PTR [ebp-0x14]
 80484c5:	0f b6 00             	movzx  eax,BYTE PTR [eax]
 80484c8:	0f be c0             	movsx  eax,al
 80484cb:	83 ec 04             	sub    esp,0x4
 80484ce:	50                   	push   eax
 80484cf:	ff 75 f0             	push   DWORD PTR [ebp-0x10]
 80484d2:	ff 75 08             	push   DWORD PTR [ebp+0x8]
 80484d5:	e8 5f 00 00 00       	call   8048539 <__libc_start_main@plt+0x1b9>
 80484da:	83 c4 10             	add    esp,0x10
 80484dd:	21 45 f4             	and    DWORD PTR [ebp-0xc],eax
 80484e0:	83 45 ec 01          	add    DWORD PTR [ebp-0x14],0x1
 80484e4:	eb 04                	jmp    80484ea <__libc_start_main@plt+0x16a>
 80484e6:	83 45 f0 01          	add    DWORD PTR [ebp-0x10],0x1
 80484ea:	8b 45 f0             	mov    eax,DWORD PTR [ebp-0x10]
 80484ed:	0f b6 00             	movzx  eax,BYTE PTR [eax]
 80484f0:	3c 4c                	cmp    al,0x4c
 80484f2:	74 f2                	je     80484e6 <__libc_start_main@plt+0x166>
 80484f4:	8b 45 f0             	mov    eax,DWORD PTR [ebp-0x10]
 80484f7:	0f b6 00             	movzx  eax,BYTE PTR [eax]
 80484fa:	3c 52                	cmp    al,0x52
 80484fc:	74 e8                	je     80484e6 <__libc_start_main@plt+0x166>
 80484fe:	83 45 f0 01          	add    DWORD PTR [ebp-0x10],0x1
 8048502:	8b 45 f0             	mov    eax,DWORD PTR [ebp-0x10]
 8048505:	0f b6 00             	movzx  eax,BYTE PTR [eax]
 8048508:	84 c0                	test   al,al
 804850a:	74 0a                	je     8048516 <__libc_start_main@plt+0x196>
 804850c:	8b 45 ec             	mov    eax,DWORD PTR [ebp-0x14]
 804850f:	0f b6 00             	movzx  eax,BYTE PTR [eax]
 8048512:	84 c0                	test   al,al
 8048514:	75 ac                	jne    80484c2 <__libc_start_main@plt+0x142>
 8048516:	8b 45 f0             	mov    eax,DWORD PTR [ebp-0x10]
 8048519:	0f b6 00             	movzx  eax,BYTE PTR [eax]
 804851c:	84 c0                	test   al,al
 804851e:	0f 94 c2             	sete   dl
 8048521:	8b 45 ec             	mov    eax,DWORD PTR [ebp-0x14]
 8048524:	0f b6 00             	movzx  eax,BYTE PTR [eax]
 8048527:	84 c0                	test   al,al
 8048529:	0f 94 c0             	sete   al
 804852c:	21 d0                	and    eax,edx
 804852e:	0f b6 c0             	movzx  eax,al
 8048531:	21 45 f4             	and    DWORD PTR [ebp-0xc],eax
 8048534:	8b 45 f4             	mov    eax,DWORD PTR [ebp-0xc]
 8048537:	c9                   	leave  
 8048538:	c3                   	ret    
 8048539:	55                   	push   ebp
 804853a:	89 e5                	mov    ebp,esp
 804853c:	83 ec 18             	sub    esp,0x18
 804853f:	8b 45 10             	mov    eax,DWORD PTR [ebp+0x10]
 8048542:	88 45 f4             	mov    BYTE PTR [ebp-0xc],al
 8048545:	83 7d 08 00          	cmp    DWORD PTR [ebp+0x8],0x0
 8048549:	74 0a                	je     8048555 <__libc_start_main@plt+0x1d5>
 804854b:	8b 45 0c             	mov    eax,DWORD PTR [ebp+0xc]
 804854e:	0f b6 00             	movzx  eax,BYTE PTR [eax]
 8048551:	84 c0                	test   al,al
 8048553:	75 0a                	jne    804855f <__libc_start_main@plt+0x1df>
 8048555:	b8 00 00 00 00       	mov    eax,0x0
 804855a:	e9 a6 00 00 00       	jmp    8048605 <__libc_start_main@plt+0x285>
 804855f:	8b 45 08             	mov    eax,DWORD PTR [ebp+0x8]
 8048562:	0f b6 40 08          	movzx  eax,BYTE PTR [eax+0x8]
 8048566:	3a 45 f4             	cmp    al,BYTE PTR [ebp-0xc]
 8048569:	75 28                	jne    8048593 <__libc_start_main@plt+0x213>
 804856b:	8b 45 0c             	mov    eax,DWORD PTR [ebp+0xc]
 804856e:	0f b6 00             	movzx  eax,BYTE PTR [eax]
 8048571:	3c 44                	cmp    al,0x44
 8048573:	0f 85 87 00 00 00    	jne    8048600 <__libc_start_main@plt+0x280>
 8048579:	8b 45 08             	mov    eax,DWORD PTR [ebp+0x8]
 804857c:	0f b6 40 08          	movzx  eax,BYTE PTR [eax+0x8]
 8048580:	3a 45 f4             	cmp    al,BYTE PTR [ebp-0xc]
 8048583:	75 07                	jne    804858c <__libc_start_main@plt+0x20c>
 8048585:	b8 01 00 00 00       	mov    eax,0x1
 804858a:	eb 79                	jmp    8048605 <__libc_start_main@plt+0x285>
 804858c:	b8 00 00 00 00       	mov    eax,0x0
 8048591:	eb 72                	jmp    8048605 <__libc_start_main@plt+0x285>
 8048593:	8b 45 08             	mov    eax,DWORD PTR [ebp+0x8]
 8048596:	0f b6 40 08          	movzx  eax,BYTE PTR [eax+0x8]
 804859a:	3a 45 f4             	cmp    al,BYTE PTR [ebp-0xc]
 804859d:	7e 30                	jle    80485cf <__libc_start_main@plt+0x24f>
 804859f:	8b 45 0c             	mov    eax,DWORD PTR [ebp+0xc]
 80485a2:	0f b6 00             	movzx  eax,BYTE PTR [eax]
 80485a5:	3c 4c                	cmp    al,0x4c
 80485a7:	75 1f                	jne    80485c8 <__libc_start_main@plt+0x248>
 80485a9:	0f be 55 f4          	movsx  edx,BYTE PTR [ebp-0xc]
 80485ad:	8b 45 0c             	mov    eax,DWORD PTR [ebp+0xc]
 80485b0:	8d 48 01             	lea    ecx,[eax+0x1]
 80485b3:	8b 45 08             	mov    eax,DWORD PTR [ebp+0x8]
 80485b6:	8b 00                	mov    eax,DWORD PTR [eax]
 80485b8:	83 ec 04             	sub    esp,0x4
 80485bb:	52                   	push   edx
 80485bc:	51                   	push   ecx
 80485bd:	50                   	push   eax
 80485be:	e8 76 ff ff ff       	call   8048539 <__libc_start_main@plt+0x1b9>
 80485c3:	83 c4 10             	add    esp,0x10
 80485c6:	eb 3d                	jmp    8048605 <__libc_start_main@plt+0x285>
 80485c8:	b8 00 00 00 00       	mov    eax,0x0
 80485cd:	eb 36                	jmp    8048605 <__libc_start_main@plt+0x285>
 80485cf:	8b 45 0c             	mov    eax,DWORD PTR [ebp+0xc]
 80485d2:	0f b6 00             	movzx  eax,BYTE PTR [eax]
 80485d5:	3c 52                	cmp    al,0x52
 80485d7:	75 20                	jne    80485f9 <__libc_start_main@plt+0x279>
 80485d9:	0f be 55 f4          	movsx  edx,BYTE PTR [ebp-0xc]
 80485dd:	8b 45 0c             	mov    eax,DWORD PTR [ebp+0xc]
 80485e0:	8d 48 01             	lea    ecx,[eax+0x1]
 80485e3:	8b 45 08             	mov    eax,DWORD PTR [ebp+0x8]
 80485e6:	8b 40 04             	mov    eax,DWORD PTR [eax+0x4]
 80485e9:	83 ec 04             	sub    esp,0x4
 80485ec:	52                   	push   edx
 80485ed:	51                   	push   ecx
 80485ee:	50                   	push   eax
 80485ef:	e8 45 ff ff ff       	call   8048539 <__libc_start_main@plt+0x1b9>
 80485f4:	83 c4 10             	add    esp,0x10
 80485f7:	eb 0c                	jmp    8048605 <__libc_start_main@plt+0x285>
 80485f9:	b8 00 00 00 00       	mov    eax,0x0
 80485fe:	eb 05                	jmp    8048605 <__libc_start_main@plt+0x285>
 8048600:	b8 00 00 00 00       	mov    eax,0x0
 8048605:	c9                   	leave  
 8048606:	c3                   	ret    
 8048607:	55                   	push   ebp
 8048608:	89 e5                	mov    ebp,esp
 804860a:	83 ec 28             	sub    esp,0x28
 804860d:	8b 45 0c             	mov    eax,DWORD PTR [ebp+0xc]
 8048610:	88 45 e4             	mov    BYTE PTR [ebp-0x1c],al
 8048613:	83 7d 08 00          	cmp    DWORD PTR [ebp+0x8],0x0
 8048617:	75 32                	jne    804864b <__libc_start_main@plt+0x2cb>
 8048619:	83 ec 0c             	sub    esp,0xc
 804861c:	6a 0c                	push   0xc
 804861e:	e8 1d fd ff ff       	call   8048340 <malloc@plt>
 8048623:	83 c4 10             	add    esp,0x10
 8048626:	89 45 08             	mov    DWORD PTR [ebp+0x8],eax
 8048629:	8b 45 08             	mov    eax,DWORD PTR [ebp+0x8]
 804862c:	c7 00 00 00 00 00    	mov    DWORD PTR [eax],0x0
 8048632:	8b 45 08             	mov    eax,DWORD PTR [ebp+0x8]
 8048635:	c7 40 04 00 00 00 00 	mov    DWORD PTR [eax+0x4],0x0
 804863c:	8b 45 08             	mov    eax,DWORD PTR [ebp+0x8]
 804863f:	0f b6 55 e4          	movzx  edx,BYTE PTR [ebp-0x1c]
 8048643:	88 50 08             	mov    BYTE PTR [eax+0x8],dl
 8048646:	8b 45 08             	mov    eax,DWORD PTR [ebp+0x8]
 8048649:	eb 57                	jmp    80486a2 <__libc_start_main@plt+0x322>
 804864b:	8b 45 08             	mov    eax,DWORD PTR [ebp+0x8]
 804864e:	0f b6 40 08          	movzx  eax,BYTE PTR [eax+0x8]
 8048652:	88 45 f7             	mov    BYTE PTR [ebp-0x9],al
 8048655:	0f b6 45 f7          	movzx  eax,BYTE PTR [ebp-0x9]
 8048659:	3a 45 e4             	cmp    al,BYTE PTR [ebp-0x1c]
 804865c:	7d 24                	jge    8048682 <__libc_start_main@plt+0x302>
 804865e:	0f be 55 e4          	movsx  edx,BYTE PTR [ebp-0x1c]
 8048662:	8b 45 08             	mov    eax,DWORD PTR [ebp+0x8]
 8048665:	8b 40 04             	mov    eax,DWORD PTR [eax+0x4]
 8048668:	83 ec 08             	sub    esp,0x8
 804866b:	52                   	push   edx
 804866c:	50                   	push   eax
 804866d:	e8 95 ff ff ff       	call   8048607 <__libc_start_main@plt+0x287>
 8048672:	83 c4 10             	add    esp,0x10
 8048675:	89 c2                	mov    edx,eax
 8048677:	8b 45 08             	mov    eax,DWORD PTR [ebp+0x8]
 804867a:	89 50 04             	mov    DWORD PTR [eax+0x4],edx
 804867d:	8b 45 08             	mov    eax,DWORD PTR [ebp+0x8]
 8048680:	eb 20                	jmp    80486a2 <__libc_start_main@plt+0x322>
 8048682:	0f be 55 e4          	movsx  edx,BYTE PTR [ebp-0x1c]
 8048686:	8b 45 08             	mov    eax,DWORD PTR [ebp+0x8]
 8048689:	8b 00                	mov    eax,DWORD PTR [eax]
 804868b:	83 ec 08             	sub    esp,0x8
 804868e:	52                   	push   edx
 804868f:	50                   	push   eax
 8048690:	e8 72 ff ff ff       	call   8048607 <__libc_start_main@plt+0x287>
 8048695:	83 c4 10             	add    esp,0x10
 8048698:	89 c2                	mov    edx,eax
 804869a:	8b 45 08             	mov    eax,DWORD PTR [ebp+0x8]
 804869d:	89 10                	mov    DWORD PTR [eax],edx
 804869f:	8b 45 08             	mov    eax,DWORD PTR [ebp+0x8]
 80486a2:	c9                   	leave  
 80486a3:	c3                   	ret    
 80486a4:	55                   	push   ebp
 80486a5:	89 e5                	mov    ebp,esp
 80486a7:	83 ec 08             	sub    esp,0x8
 80486aa:	83 7d 08 00          	cmp    DWORD PTR [ebp+0x8],0x0
 80486ae:	74 3e                	je     80486ee <__libc_start_main@plt+0x36e>
 80486b0:	8b 45 08             	mov    eax,DWORD PTR [ebp+0x8]
 80486b3:	8b 00                	mov    eax,DWORD PTR [eax]
 80486b5:	83 ec 0c             	sub    esp,0xc
 80486b8:	50                   	push   eax
 80486b9:	e8 e6 ff ff ff       	call   80486a4 <__libc_start_main@plt+0x324>
 80486be:	83 c4 10             	add    esp,0x10
 80486c1:	8b 45 08             	mov    eax,DWORD PTR [ebp+0x8]
 80486c4:	0f b6 40 08          	movzx  eax,BYTE PTR [eax+0x8]
 80486c8:	0f be c0             	movsx  eax,al
 80486cb:	83 ec 08             	sub    esp,0x8
 80486ce:	50                   	push   eax
 80486cf:	68 ac 88 04 08       	push   0x80488ac
 80486d4:	e8 57 fc ff ff       	call   8048330 <printf@plt>
 80486d9:	83 c4 10             	add    esp,0x10
 80486dc:	8b 45 08             	mov    eax,DWORD PTR [ebp+0x8]
 80486df:	8b 40 04             	mov    eax,DWORD PTR [eax+0x4]
 80486e2:	83 ec 0c             	sub    esp,0xc
 80486e5:	50                   	push   eax
 80486e6:	e8 b9 ff ff ff       	call   80486a4 <__libc_start_main@plt+0x324>
 80486eb:	83 c4 10             	add    esp,0x10
 80486ee:	c9                   	leave  
 80486ef:	c3                   	ret    
 80486f0:	55                   	push   ebp
 80486f1:	89 e5                	mov    ebp,esp
 80486f3:	83 ec 18             	sub    esp,0x18
 80486f6:	c7 45 f4 00 00 00 00 	mov    DWORD PTR [ebp-0xc],0x0
 80486fd:	c7 45 f0 00 00 00 00 	mov    DWORD PTR [ebp-0x10],0x0
 8048704:	eb 24                	jmp    804872a <__libc_start_main@plt+0x3aa>
 8048706:	8b 55 08             	mov    edx,DWORD PTR [ebp+0x8]
 8048709:	8b 45 f0             	mov    eax,DWORD PTR [ebp-0x10]
 804870c:	01 d0                	add    eax,edx
 804870e:	0f b6 00             	movzx  eax,BYTE PTR [eax]
 8048711:	0f be c0             	movsx  eax,al
 8048714:	83 ec 08             	sub    esp,0x8
 8048717:	50                   	push   eax
 8048718:	ff 75 f4             	push   DWORD PTR [ebp-0xc]
 804871b:	e8 e7 fe ff ff       	call   8048607 <__libc_start_main@plt+0x287>
 8048720:	83 c4 10             	add    esp,0x10
 8048723:	89 45 f4             	mov    DWORD PTR [ebp-0xc],eax
 8048726:	83 45 f0 01          	add    DWORD PTR [ebp-0x10],0x1
 804872a:	8b 55 08             	mov    edx,DWORD PTR [ebp+0x8]
 804872d:	8b 45 f0             	mov    eax,DWORD PTR [ebp-0x10]
 8048730:	01 d0                	add    eax,edx
 8048732:	0f b6 00             	movzx  eax,BYTE PTR [eax]
 8048735:	84 c0                	test   al,al
 8048737:	75 cd                	jne    8048706 <__libc_start_main@plt+0x386>
 8048739:	8b 45 f4             	mov    eax,DWORD PTR [ebp-0xc]
 804873c:	c9                   	leave  
 804873d:	c3                   	ret    
 804873e:	8d 4c 24 04          	lea    ecx,[esp+0x4]
 8048742:	83 e4 f0             	and    esp,0xfffffff0
 8048745:	ff 71 fc             	push   DWORD PTR [ecx-0x4]
 8048748:	55                   	push   ebp
 8048749:	89 e5                	mov    ebp,esp
 804874b:	53                   	push   ebx
 804874c:	51                   	push   ecx
 804874d:	83 ec 10             	sub    esp,0x10
 8048750:	89 cb                	mov    ebx,ecx
 8048752:	a1 0c 9c 04 08       	mov    eax,ds:0x8049c0c
 8048757:	83 ec 0c             	sub    esp,0xc
 804875a:	50                   	push   eax
 804875b:	e8 90 ff ff ff       	call   80486f0 <__libc_start_main@plt+0x370>
 8048760:	83 c4 10             	add    esp,0x10
 8048763:	89 45 f4             	mov    DWORD PTR [ebp-0xc],eax
 8048766:	83 3b 03             	cmp    DWORD PTR [ebx],0x3
 8048769:	74 30                	je     804879b <__libc_start_main@plt+0x41b>
 804876b:	83 ec 0c             	sub    esp,0xc
 804876e:	68 b0 88 04 08       	push   0x80488b0
 8048773:	e8 d8 fb ff ff       	call   8048350 <puts@plt>
 8048778:	83 c4 10             	add    esp,0x10
 804877b:	8b 43 04             	mov    eax,DWORD PTR [ebx+0x4]
 804877e:	8b 00                	mov    eax,DWORD PTR [eax]
 8048780:	83 ec 08             	sub    esp,0x8
 8048783:	50                   	push   eax
 8048784:	68 e8 88 04 08       	push   0x80488e8
 8048789:	e8 a2 fb ff ff       	call   8048330 <printf@plt>
 804878e:	83 c4 10             	add    esp,0x10
 8048791:	83 ec 0c             	sub    esp,0xc
 8048794:	6a 01                	push   0x1
 8048796:	e8 d5 fb ff ff       	call   8048370 <exit@plt>
 804879b:	8b 43 04             	mov    eax,DWORD PTR [ebx+0x4]
 804879e:	83 c0 04             	add    eax,0x4
 80487a1:	8b 10                	mov    edx,DWORD PTR [eax]
 80487a3:	8b 43 04             	mov    eax,DWORD PTR [ebx+0x4]
 80487a6:	83 c0 08             	add    eax,0x8
 80487a9:	8b 00                	mov    eax,DWORD PTR [eax]
 80487ab:	83 ec 04             	sub    esp,0x4
 80487ae:	52                   	push   edx
 80487af:	50                   	push   eax
 80487b0:	ff 75 f4             	push   DWORD PTR [ebp-0xc]
 80487b3:	e8 d3 fc ff ff       	call   804848b <__libc_start_main@plt+0x10b>
 80487b8:	83 c4 10             	add    esp,0x10
 80487bb:	89 45 f0             	mov    DWORD PTR [ebp-0x10],eax
 80487be:	83 7d f0 00          	cmp    DWORD PTR [ebp-0x10],0x0
 80487c2:	74 12                	je     80487d6 <__libc_start_main@plt+0x456>
 80487c4:	83 ec 0c             	sub    esp,0xc
 80487c7:	68 00 89 04 08       	push   0x8048900
 80487cc:	e8 7f fb ff ff       	call   8048350 <puts@plt>
 80487d1:	83 c4 10             	add    esp,0x10
 80487d4:	eb 10                	jmp    80487e6 <__libc_start_main@plt+0x466>
 80487d6:	83 ec 0c             	sub    esp,0xc
 80487d9:	68 29 89 04 08       	push   0x8048929
 80487de:	e8 6d fb ff ff       	call   8048350 <puts@plt>
 80487e3:	83 c4 10             	add    esp,0x10
 80487e6:	b8 00 00 00 00       	mov    eax,0x0
 80487eb:	8d 65 f8             	lea    esp,[ebp-0x8]
 80487ee:	59                   	pop    ecx
 80487ef:	5b                   	pop    ebx
 80487f0:	5d                   	pop    ebp
 80487f1:	8d 61 fc             	lea    esp,[ecx-0x4]
 80487f4:	c3                   	ret    
 80487f5:	66 90                	xchg   ax,ax
 80487f7:	66 90                	xchg   ax,ax
 80487f9:	66 90                	xchg   ax,ax
 80487fb:	66 90                	xchg   ax,ax
 80487fd:	66 90                	xchg   ax,ax
 80487ff:	90                   	nop
 8048800:	55                   	push   ebp
 8048801:	57                   	push   edi
 8048802:	31 ff                	xor    edi,edi
 8048804:	56                   	push   esi
 8048805:	53                   	push   ebx
 8048806:	e8 b5 fb ff ff       	call   80483c0 <__libc_start_main@plt+0x40>
 804880b:	81 c3 d5 13 00 00    	add    ebx,0x13d5
 8048811:	83 ec 1c             	sub    esp,0x1c
 8048814:	8b 6c 24 30          	mov    ebp,DWORD PTR [esp+0x30]
 8048818:	8d b3 0c ff ff ff    	lea    esi,[ebx-0xf4]
 804881e:	e8 d1 fa ff ff       	call   80482f4 <printf@plt-0x3c>
 8048823:	8d 83 08 ff ff ff    	lea    eax,[ebx-0xf8]
 8048829:	29 c6                	sub    esi,eax
 804882b:	c1 fe 02             	sar    esi,0x2
 804882e:	85 f6                	test   esi,esi
 8048830:	74 27                	je     8048859 <__libc_start_main@plt+0x4d9>
 8048832:	8d b6 00 00 00 00    	lea    esi,[esi+0x0]
 8048838:	8b 44 24 38          	mov    eax,DWORD PTR [esp+0x38]
 804883c:	89 2c 24             	mov    DWORD PTR [esp],ebp
 804883f:	89 44 24 08          	mov    DWORD PTR [esp+0x8],eax
 8048843:	8b 44 24 34          	mov    eax,DWORD PTR [esp+0x34]
 8048847:	89 44 24 04          	mov    DWORD PTR [esp+0x4],eax
 804884b:	ff 94 bb 08 ff ff ff 	call   DWORD PTR [ebx+edi*4-0xf8]
 8048852:	83 c7 01             	add    edi,0x1
 8048855:	39 f7                	cmp    edi,esi
 8048857:	75 df                	jne    8048838 <__libc_start_main@plt+0x4b8>
 8048859:	83 c4 1c             	add    esp,0x1c
 804885c:	5b                   	pop    ebx
 804885d:	5e                   	pop    esi
 804885e:	5f                   	pop    edi
 804885f:	5d                   	pop    ebp
 8048860:	c3                   	ret    
 8048861:	eb 0d                	jmp    8048870 <__libc_start_main@plt+0x4f0>
 8048863:	90                   	nop
 8048864:	90                   	nop
 8048865:	90                   	nop
 8048866:	90                   	nop
 8048867:	90                   	nop
 8048868:	90                   	nop
 8048869:	90                   	nop
 804886a:	90                   	nop
 804886b:	90                   	nop
 804886c:	90                   	nop
 804886d:	90                   	nop
 804886e:	90                   	nop
 804886f:	90                   	nop
 8048870:	f3 c3                	repz ret 

Disassembly of section .fini:

08048874 <.fini>:
 8048874:	53                   	push   ebx
 8048875:	83 ec 08             	sub    esp,0x8
 8048878:	e8 43 fb ff ff       	call   80483c0 <__libc_start_main@plt+0x40>
 804887d:	81 c3 63 13 00 00    	add    ebx,0x1363
 8048883:	83 c4 08             	add    esp,0x8
 8048886:	5b                   	pop    ebx
 8048887:	c3                   	ret    
