
./guess_num:     file format elf32-i386


Disassembly of section .init:

0804837c <_init>:
 804837c:	53                   	push   ebx
 804837d:	83 ec 08             	sub    esp,0x8
 8048380:	e8 db 00 00 00       	call   8048460 <__x86.get_pc_thunk.bx>
 8048385:	81 c3 2f 16 00 00    	add    ebx,0x162f
 804838b:	8b 83 fc ff ff ff    	mov    eax,DWORD PTR [ebx-0x4]
 8048391:	85 c0                	test   eax,eax
 8048393:	74 05                	je     804839a <_init+0x1e>
 8048395:	e8 56 00 00 00       	call   80483f0 <__gmon_start__@plt>
 804839a:	83 c4 08             	add    esp,0x8
 804839d:	5b                   	pop    ebx
 804839e:	c3                   	ret    

Disassembly of section .plt:

080483a0 <.plt>:
 80483a0:	ff 35 b8 99 04 08    	push   DWORD PTR ds:0x80499b8
 80483a6:	ff 25 bc 99 04 08    	jmp    DWORD PTR ds:0x80499bc
 80483ac:	00 00                	add    BYTE PTR [eax],al
	...

080483b0 <setbuf@plt>:
 80483b0:	ff 25 c0 99 04 08    	jmp    DWORD PTR ds:0x80499c0
 80483b6:	68 00 00 00 00       	push   0x0
 80483bb:	e9 e0 ff ff ff       	jmp    80483a0 <.plt>

080483c0 <printf@plt>:
 80483c0:	ff 25 c4 99 04 08    	jmp    DWORD PTR ds:0x80499c4
 80483c6:	68 08 00 00 00       	push   0x8
 80483cb:	e9 d0 ff ff ff       	jmp    80483a0 <.plt>

080483d0 <puts@plt>:
 80483d0:	ff 25 c8 99 04 08    	jmp    DWORD PTR ds:0x80499c8
 80483d6:	68 10 00 00 00       	push   0x10
 80483db:	e9 c0 ff ff ff       	jmp    80483a0 <.plt>

080483e0 <system@plt>:
 80483e0:	ff 25 cc 99 04 08    	jmp    DWORD PTR ds:0x80499cc
 80483e6:	68 18 00 00 00       	push   0x18
 80483eb:	e9 b0 ff ff ff       	jmp    80483a0 <.plt>

080483f0 <__gmon_start__@plt>:
 80483f0:	ff 25 d0 99 04 08    	jmp    DWORD PTR ds:0x80499d0
 80483f6:	68 20 00 00 00       	push   0x20
 80483fb:	e9 a0 ff ff ff       	jmp    80483a0 <.plt>

08048400 <__libc_start_main@plt>:
 8048400:	ff 25 d4 99 04 08    	jmp    DWORD PTR ds:0x80499d4
 8048406:	68 28 00 00 00       	push   0x28
 804840b:	e9 90 ff ff ff       	jmp    80483a0 <.plt>

08048410 <__isoc99_scanf@plt>:
 8048410:	ff 25 d8 99 04 08    	jmp    DWORD PTR ds:0x80499d8
 8048416:	68 30 00 00 00       	push   0x30
 804841b:	e9 80 ff ff ff       	jmp    80483a0 <.plt>

08048420 <strtol@plt>:
 8048420:	ff 25 dc 99 04 08    	jmp    DWORD PTR ds:0x80499dc
 8048426:	68 38 00 00 00       	push   0x38
 804842b:	e9 70 ff ff ff       	jmp    80483a0 <.plt>

Disassembly of section .text:

08048430 <_start>:
 8048430:	31 ed                	xor    ebp,ebp
 8048432:	5e                   	pop    esi
 8048433:	89 e1                	mov    ecx,esp
 8048435:	83 e4 f0             	and    esp,0xfffffff0
 8048438:	50                   	push   eax
 8048439:	54                   	push   esp
 804843a:	52                   	push   edx
 804843b:	68 a0 86 04 08       	push   0x80486a0
 8048440:	68 30 86 04 08       	push   0x8048630
 8048445:	51                   	push   ecx
 8048446:	56                   	push   esi
 8048447:	68 53 85 04 08       	push   0x8048553
 804844c:	e8 af ff ff ff       	call   8048400 <__libc_start_main@plt>
 8048451:	f4                   	hlt    
 8048452:	66 90                	xchg   ax,ax
 8048454:	66 90                	xchg   ax,ax
 8048456:	66 90                	xchg   ax,ax
 8048458:	66 90                	xchg   ax,ax
 804845a:	66 90                	xchg   ax,ax
 804845c:	66 90                	xchg   ax,ax
 804845e:	66 90                	xchg   ax,ax

08048460 <__x86.get_pc_thunk.bx>:
 8048460:	8b 1c 24             	mov    ebx,DWORD PTR [esp]
 8048463:	c3                   	ret    
 8048464:	66 90                	xchg   ax,ax
 8048466:	66 90                	xchg   ax,ax
 8048468:	66 90                	xchg   ax,ax
 804846a:	66 90                	xchg   ax,ax
 804846c:	66 90                	xchg   ax,ax
 804846e:	66 90                	xchg   ax,ax

08048470 <deregister_tm_clones>:
 8048470:	b8 eb 99 04 08       	mov    eax,0x80499eb
 8048475:	2d e8 99 04 08       	sub    eax,0x80499e8
 804847a:	83 f8 06             	cmp    eax,0x6
 804847d:	76 1a                	jbe    8048499 <deregister_tm_clones+0x29>
 804847f:	b8 00 00 00 00       	mov    eax,0x0
 8048484:	85 c0                	test   eax,eax
 8048486:	74 11                	je     8048499 <deregister_tm_clones+0x29>
 8048488:	55                   	push   ebp
 8048489:	89 e5                	mov    ebp,esp
 804848b:	83 ec 14             	sub    esp,0x14
 804848e:	68 e8 99 04 08       	push   0x80499e8
 8048493:	ff d0                	call   eax
 8048495:	83 c4 10             	add    esp,0x10
 8048498:	c9                   	leave  
 8048499:	f3 c3                	repz ret 
 804849b:	90                   	nop
 804849c:	8d 74 26 00          	lea    esi,[esi+eiz*1+0x0]

080484a0 <register_tm_clones>:
 80484a0:	b8 e8 99 04 08       	mov    eax,0x80499e8
 80484a5:	2d e8 99 04 08       	sub    eax,0x80499e8
 80484aa:	c1 f8 02             	sar    eax,0x2
 80484ad:	89 c2                	mov    edx,eax
 80484af:	c1 ea 1f             	shr    edx,0x1f
 80484b2:	01 d0                	add    eax,edx
 80484b4:	d1 f8                	sar    eax,1
 80484b6:	74 1b                	je     80484d3 <register_tm_clones+0x33>
 80484b8:	ba 00 00 00 00       	mov    edx,0x0
 80484bd:	85 d2                	test   edx,edx
 80484bf:	74 12                	je     80484d3 <register_tm_clones+0x33>
 80484c1:	55                   	push   ebp
 80484c2:	89 e5                	mov    ebp,esp
 80484c4:	83 ec 10             	sub    esp,0x10
 80484c7:	50                   	push   eax
 80484c8:	68 e8 99 04 08       	push   0x80499e8
 80484cd:	ff d2                	call   edx
 80484cf:	83 c4 10             	add    esp,0x10
 80484d2:	c9                   	leave  
 80484d3:	f3 c3                	repz ret 
 80484d5:	8d 74 26 00          	lea    esi,[esi+eiz*1+0x0]
 80484d9:	8d bc 27 00 00 00 00 	lea    edi,[edi+eiz*1+0x0]

080484e0 <__do_global_dtors_aux>:
 80484e0:	80 3d 04 9a 04 08 00 	cmp    BYTE PTR ds:0x8049a04,0x0
 80484e7:	75 13                	jne    80484fc <__do_global_dtors_aux+0x1c>
 80484e9:	55                   	push   ebp
 80484ea:	89 e5                	mov    ebp,esp
 80484ec:	83 ec 08             	sub    esp,0x8
 80484ef:	e8 7c ff ff ff       	call   8048470 <deregister_tm_clones>
 80484f4:	c6 05 04 9a 04 08 01 	mov    BYTE PTR ds:0x8049a04,0x1
 80484fb:	c9                   	leave  
 80484fc:	f3 c3                	repz ret 
 80484fe:	66 90                	xchg   ax,ax

08048500 <frame_dummy>:
 8048500:	b8 c4 98 04 08       	mov    eax,0x80498c4
 8048505:	8b 10                	mov    edx,DWORD PTR [eax]
 8048507:	85 d2                	test   edx,edx
 8048509:	75 05                	jne    8048510 <frame_dummy+0x10>
 804850b:	eb 93                	jmp    80484a0 <register_tm_clones>
 804850d:	8d 76 00             	lea    esi,[esi+0x0]
 8048510:	ba 00 00 00 00       	mov    edx,0x0
 8048515:	85 d2                	test   edx,edx
 8048517:	74 f2                	je     804850b <frame_dummy+0xb>
 8048519:	55                   	push   ebp
 804851a:	89 e5                	mov    ebp,esp
 804851c:	83 ec 14             	sub    esp,0x14
 804851f:	50                   	push   eax
 8048520:	ff d2                	call   edx
 8048522:	83 c4 10             	add    esp,0x10
 8048525:	c9                   	leave  
 8048526:	e9 75 ff ff ff       	jmp    80484a0 <register_tm_clones>

0804852b <win>:
 804852b:	55                   	push   ebp
 804852c:	89 e5                	mov    ebp,esp
 804852e:	83 ec 08             	sub    esp,0x8
 8048531:	83 ec 0c             	sub    esp,0xc
 8048534:	68 c0 86 04 08       	push   0x80486c0
 8048539:	e8 92 fe ff ff       	call   80483d0 <puts@plt>
 804853e:	83 c4 10             	add    esp,0x10
 8048541:	83 ec 0c             	sub    esp,0xc
 8048544:	68 df 86 04 08       	push   0x80486df
 8048549:	e8 92 fe ff ff       	call   80483e0 <system@plt>
 804854e:	83 c4 10             	add    esp,0x10
 8048551:	c9                   	leave  
 8048552:	c3                   	ret    

08048553 <main>:
 8048553:	8d 4c 24 04          	lea    ecx,[esp+0x4]
 8048557:	83 e4 f0             	and    esp,0xfffffff0
 804855a:	ff 71 fc             	push   DWORD PTR [ecx-0x4]
 804855d:	55                   	push   ebp
 804855e:	89 e5                	mov    ebp,esp
 8048560:	51                   	push   ecx
 8048561:	83 ec 34             	sub    esp,0x34
 8048564:	c7 45 d4 00 00 00 00 	mov    DWORD PTR [ebp-0x2c],0x0
 804856b:	b9 00 00 00 00       	mov    ecx,0x0
 8048570:	b8 1c 00 00 00       	mov    eax,0x1c
 8048575:	83 e0 fc             	and    eax,0xfffffffc
 8048578:	89 c2                	mov    edx,eax
 804857a:	b8 00 00 00 00       	mov    eax,0x0
 804857f:	89 4c 05 d8          	mov    DWORD PTR [ebp+eax*1-0x28],ecx
 8048583:	83 c0 04             	add    eax,0x4
 8048586:	39 d0                	cmp    eax,edx
 8048588:	72 f5                	jb     804857f <main+0x2c>
 804858a:	a1 00 9a 04 08       	mov    eax,ds:0x8049a00
 804858f:	83 ec 08             	sub    esp,0x8
 8048592:	6a 00                	push   0x0
 8048594:	50                   	push   eax
 8048595:	e8 16 fe ff ff       	call   80483b0 <setbuf@plt>
 804859a:	83 c4 10             	add    esp,0x10
 804859d:	83 ec 0c             	sub    esp,0xc
 80485a0:	68 ec 86 04 08       	push   0x80486ec
 80485a5:	e8 26 fe ff ff       	call   80483d0 <puts@plt>
 80485aa:	83 c4 10             	add    esp,0x10
 80485ad:	83 ec 0c             	sub    esp,0xc
 80485b0:	68 14 87 04 08       	push   0x8048714
 80485b5:	e8 16 fe ff ff       	call   80483d0 <puts@plt>
 80485ba:	83 c4 10             	add    esp,0x10
 80485bd:	83 ec 0c             	sub    esp,0xc
 80485c0:	68 40 87 04 08       	push   0x8048740
 80485c5:	e8 06 fe ff ff       	call   80483d0 <puts@plt>
 80485ca:	83 c4 10             	add    esp,0x10
 80485cd:	83 ec 0c             	sub    esp,0xc
 80485d0:	68 61 87 04 08       	push   0x8048761
 80485d5:	e8 e6 fd ff ff       	call   80483c0 <printf@plt>
 80485da:	83 c4 10             	add    esp,0x10
 80485dd:	83 ec 08             	sub    esp,0x8
 80485e0:	8d 45 d4             	lea    eax,[ebp-0x2c]
 80485e3:	50                   	push   eax
 80485e4:	68 75 87 04 08       	push   0x8048775
 80485e9:	e8 22 fe ff ff       	call   8048410 <__isoc99_scanf@plt>
 80485ee:	83 c4 10             	add    esp,0x10
 80485f1:	83 ec 04             	sub    esp,0x4
 80485f4:	6a 0a                	push   0xa
 80485f6:	6a 00                	push   0x0
 80485f8:	8d 45 d4             	lea    eax,[ebp-0x2c]
 80485fb:	50                   	push   eax
 80485fc:	e8 1f fe ff ff       	call   8048420 <strtol@plt>
 8048601:	83 c4 10             	add    esp,0x10
 8048604:	89 45 f4             	mov    DWORD PTR [ebp-0xc],eax
 8048607:	83 ec 08             	sub    esp,0x8
 804860a:	ff 75 f4             	push   DWORD PTR [ebp-0xc]
 804860d:	68 7c 87 04 08       	push   0x804877c
 8048612:	e8 a9 fd ff ff       	call   80483c0 <printf@plt>
 8048617:	83 c4 10             	add    esp,0x10
 804861a:	c1 6d f4 04          	shr    DWORD PTR [ebp-0xc],0x4
 804861e:	8b 45 f4             	mov    eax,DWORD PTR [ebp-0xc]
 8048621:	ff d0                	call   eax
 8048623:	8b 4d fc             	mov    ecx,DWORD PTR [ebp-0x4]
 8048626:	c9                   	leave  
 8048627:	8d 61 fc             	lea    esp,[ecx-0x4]
 804862a:	c3                   	ret    
 804862b:	66 90                	xchg   ax,ax
 804862d:	66 90                	xchg   ax,ax
 804862f:	90                   	nop

08048630 <__libc_csu_init>:
 8048630:	55                   	push   ebp
 8048631:	57                   	push   edi
 8048632:	31 ff                	xor    edi,edi
 8048634:	56                   	push   esi
 8048635:	53                   	push   ebx
 8048636:	e8 25 fe ff ff       	call   8048460 <__x86.get_pc_thunk.bx>
 804863b:	81 c3 79 13 00 00    	add    ebx,0x1379
 8048641:	83 ec 1c             	sub    esp,0x1c
 8048644:	8b 6c 24 30          	mov    ebp,DWORD PTR [esp+0x30]
 8048648:	8d b3 0c ff ff ff    	lea    esi,[ebx-0xf4]
 804864e:	e8 29 fd ff ff       	call   804837c <_init>
 8048653:	8d 83 08 ff ff ff    	lea    eax,[ebx-0xf8]
 8048659:	29 c6                	sub    esi,eax
 804865b:	c1 fe 02             	sar    esi,0x2
 804865e:	85 f6                	test   esi,esi
 8048660:	74 27                	je     8048689 <__libc_csu_init+0x59>
 8048662:	8d b6 00 00 00 00    	lea    esi,[esi+0x0]
 8048668:	8b 44 24 38          	mov    eax,DWORD PTR [esp+0x38]
 804866c:	89 2c 24             	mov    DWORD PTR [esp],ebp
 804866f:	89 44 24 08          	mov    DWORD PTR [esp+0x8],eax
 8048673:	8b 44 24 34          	mov    eax,DWORD PTR [esp+0x34]
 8048677:	89 44 24 04          	mov    DWORD PTR [esp+0x4],eax
 804867b:	ff 94 bb 08 ff ff ff 	call   DWORD PTR [ebx+edi*4-0xf8]
 8048682:	83 c7 01             	add    edi,0x1
 8048685:	39 f7                	cmp    edi,esi
 8048687:	75 df                	jne    8048668 <__libc_csu_init+0x38>
 8048689:	83 c4 1c             	add    esp,0x1c
 804868c:	5b                   	pop    ebx
 804868d:	5e                   	pop    esi
 804868e:	5f                   	pop    edi
 804868f:	5d                   	pop    ebp
 8048690:	c3                   	ret    
 8048691:	eb 0d                	jmp    80486a0 <__libc_csu_fini>
 8048693:	90                   	nop
 8048694:	90                   	nop
 8048695:	90                   	nop
 8048696:	90                   	nop
 8048697:	90                   	nop
 8048698:	90                   	nop
 8048699:	90                   	nop
 804869a:	90                   	nop
 804869b:	90                   	nop
 804869c:	90                   	nop
 804869d:	90                   	nop
 804869e:	90                   	nop
 804869f:	90                   	nop

080486a0 <__libc_csu_fini>:
 80486a0:	f3 c3                	repz ret 

Disassembly of section .fini:

080486a4 <_fini>:
 80486a4:	53                   	push   ebx
 80486a5:	83 ec 08             	sub    esp,0x8
 80486a8:	e8 b3 fd ff ff       	call   8048460 <__x86.get_pc_thunk.bx>
 80486ad:	81 c3 07 13 00 00    	add    ebx,0x1307
 80486b3:	83 c4 08             	add    esp,0x8
 80486b6:	5b                   	pop    ebx
 80486b7:	c3                   	ret    
